Archive member included because of file (symbol)

/usr/lib/gcc/arm-none-eabi/4.7.2/libgcc.a(_udivsi3.o)
                              obj/hitag2.o (__aeabi_uidiv)
/usr/lib/gcc/arm-none-eabi/4.7.2/libgcc.a(_divsi3.o)
                              obj/lfops.o (__aeabi_idiv)
/usr/lib/gcc/arm-none-eabi/4.7.2/libgcc.a(_dvmd_tls.o)
                              /usr/lib/gcc/arm-none-eabi/4.7.2/libgcc.a(_udivsi3.o) (__aeabi_idiv0)

Allocating common symbols
Common symbol       size              file

password            0x4               obj/hitag2.o
NrAr                0x8               obj/hitag2.o
BigBuf              0x9c40            obj/start.o
ToSend              0x200             obj/appmain.o
timer               0x4               obj/legicrf.o
timestamp           0x4               obj/legicrf.o
cipher_state        0x8               obj/hitag2.o
bPwd                0x1               obj/hitag2.o
prng_timer          0x4               obj/legicrf.o
blocknr             0x4               obj/hitag2.o
bCrypto             0x1               obj/hitag2.o
lfsr                0x8               obj/legic_prng.o
key                 0x8               obj/hitag2.o
bAuthenticating     0x1               obj/hitag2.o
ToSendMax           0x4               obj/appmain.o

Discarded input sections

 .text          0x0000000000000000        0x0 obj/version.o
 .data          0x0000000000000000        0x0 obj/version.o
 .bss           0x0000000000000000        0x0 obj/version.o
 .text          0x0000000000000000        0x0 obj/start.o
 .data          0x0000000000000000        0x0 obj/start.o
 .bss           0x0000000000000000        0x0 obj/start.o
 .data          0x0000000000000000        0x0 obj/iso15693.o
 .data          0x0000000000000000        0x0 obj/iso15693tools.o
 .data          0x0000000000000000        0x0 obj/lfops.o
 .bss           0x0000000000000000        0x0 obj/lfops.o
 .data          0x0000000000000000        0x0 obj/appmain.o
 .data          0x0000000000000000        0x0 obj/printf.o
 .bss           0x0000000000000000        0x0 obj/printf.o
 .data          0x0000000000000000        0x0 obj/util.o
 .data          0x0000000000000000        0x0 obj/string.o
 .bss           0x0000000000000000        0x0 obj/string.o
 .data          0x0000000000000000        0x0 obj/usb.o
 .data          0x0000000000000000        0x0 obj/fpgaloader.o
 .data          0x0000000000000000        0x0 obj/legicrf.o
 .data          0x0000000000000000        0x0 obj/iso14443crc.o
 .bss           0x0000000000000000        0x0 obj/iso14443crc.o
 .data          0x0000000000000000        0x0 obj/crc16.o
 .bss           0x0000000000000000        0x0 obj/crc16.o
 .data          0x0000000000000000        0x0 obj/epa.o
 .bss           0x0000000000000000        0x0 obj/epa.o
 .bss           0x0000000000000000        0x0 obj/mifareutil.o
 .data          0x0000000000000000        0x0 obj/mifarecmd.o
 .bss           0x0000000000000000        0x0 obj/mifarecmd.o
 .data          0x0000000000000000        0x0 obj/mifaresniff.o
 .data          0x0000000000000000        0x0 obj/iso14443.o
 .text          0x0000000000000000     0x15b0 obj/crapto1.o
 .data          0x0000000000000000        0x0 obj/crapto1.o
 .bss           0x0000000000000000   0x100004 obj/crapto1.o
 .text.startup  0x0000000000000000       0xb8 obj/crapto1.o
 .init_array    0x0000000000000000        0x4 obj/crapto1.o
 .rodata        0x0000000000000000      0x1f0 obj/crapto1.o
 .comment       0x0000000000000000       0x12 obj/crapto1.o
 .ARM.attributes
                0x0000000000000000       0x30 obj/crapto1.o
 .data          0x0000000000000000        0x0 obj/crypto1.o
 .bss           0x0000000000000000        0x0 obj/crypto1.o
 .data          0x0000000000000000        0x0 obj/legic_prng.o
 .bss           0x0000000000000000        0x0 obj/legic_prng.o
 .data          0x0000000000000000        0x0 obj/iclass.o
 .data          0x0000000000000000        0x0 obj/crc.o
 .bss           0x0000000000000000        0x0 obj/crc.o
 .bss           0x0000000000000000        0x0 obj/desfire.o
 .data          0x0000000000000000        0x0 obj/des3part.o
 .data          0x0000000000000000        0x0 obj/deskey.o
 .bss           0x0000000000000000        0x0 obj/deskey.o
 .text          0x0000000000000000        0x0 obj/dessp.o
 .bss           0x0000000000000000        0x0 obj/dessp.o
 .data          0x0000000000000000        0x0 /usr/lib/gcc/arm-none-eabi/4.7.2/libgcc.a(_udivsi3.o)
 .bss           0x0000000000000000        0x0 /usr/lib/gcc/arm-none-eabi/4.7.2/libgcc.a(_udivsi3.o)
 .data          0x0000000000000000        0x0 /usr/lib/gcc/arm-none-eabi/4.7.2/libgcc.a(_divsi3.o)
 .bss           0x0000000000000000        0x0 /usr/lib/gcc/arm-none-eabi/4.7.2/libgcc.a(_divsi3.o)
 .data          0x0000000000000000        0x0 /usr/lib/gcc/arm-none-eabi/4.7.2/libgcc.a(_dvmd_tls.o)
 .bss           0x0000000000000000        0x0 /usr/lib/gcc/arm-none-eabi/4.7.2/libgcc.a(_dvmd_tls.o)

Memory Configuration

Name             Origin             Length             Attributes
bootphase1       0x0000000000100000 0x0000000000000200
bootphase2       0x0000000000100200 0x0000000000001e00
fpgaimage        0x0000000000102000 0x000000000000e000
osimage          0x0000000000110000 0x0000000000030000
ram              0x0000000000200000 0x000000000000ffe0
commonarea       0x000000000020ffe0 0x0000000000000020
*default*        0x0000000000000000 0xffffffffffffffff

Linker script and memory map

                0x00000000001001fc                _bootphase1_version_pointer = ((ORIGIN (bootphase1) + 0x200) - 0x4)
                0x0000000000110000                _osimage_entry = ORIGIN (osimage)
                0x0000000000100000                _bootrom_start = ORIGIN (bootphase1)
                0x0000000000102000                _bootrom_end = (ORIGIN (bootphase2) + 0x1e00)
                0x0000000000100000                _flash_start = ORIGIN (bootphase1)
                0x0000000000140000                _flash_end = (ORIGIN (osimage) + 0x30000)
                0x000000000020ffd8                _stack_end = ((ORIGIN (ram) + 0xffe0) - 0x8)

.fpgaimage      0x0000000000102000     0xa4bc
 *(fpga_bit.data)
 fpga_bit.data  0x0000000000102000     0xa4bc obj/fpga.o
                0x0000000000102000                _binary_fpga_bit_start
                0x000000000010c4bc                _binary_fpga_bit_end

.start          0x0000000000110000       0x44
 *(.startos)
 .startos       0x0000000000110000       0x44 obj/start.o
                0x0000000000110000                Vector

.text           0x0000000000110048    0x13ac8
 *(.text)
 .text          0x0000000000110048     0x1108 obj/iso15693.o
                0x0000000000110440                AcquireRawAdcSamplesIso15693
                0x0000000000110550                RecordRawAdcSamplesIso15693
                0x0000000000110638                Iso15693InitReader
                0x0000000000110694                SendDataTag
                0x00000000001107f8                DbdecodeIso15693Answer
                0x0000000000110984                SetDebugIso15693
                0x00000000001109b0                ReaderIso15693
                0x0000000000110c5c                SimTagIso15693
                0x0000000000110fa8                BruteforceIso15693Afi
                0x0000000000111090                DirectTag15693Command
 .text          0x0000000000111150       0xac obj/iso15693tools.o
                0x0000000000111150                Iso15693Crc
                0x000000000011119c                Iso15693AddCrc
                0x00000000001111b8                Iso15693sprintUID
 *fill*         0x00000000001111fc        0x4 
 .text          0x0000000000111200     0x10b0 obj/lfops.o
                0x0000000000111298                DoAcquisition125k
                0x0000000000111320                AcquireRawAdcSamples125k
                0x0000000000111360                ModThenAcquireRawAdcSamples125k
                0x0000000000111468                WriteTIbyte
                0x00000000001114bc                AcquireTiType
                0x00000000001115b4                ReadTItag
                0x0000000000111780                WriteTItag
                0x00000000001118e4                SimulateTagLowFrequency
                0x00000000001119bc                SimulateTagLowFrequencyBidir
                0x00000000001119c0                CmdHIDsimTAG
                0x0000000000111b14                CmdHIDdemodFSK
                0x0000000000111eb0                T55xxWriteBit
                0x0000000000111eec                T55xxWriteBlock
                0x0000000000111f74                CopyHIDtoT55x7
                0x000000000011205c                WriteEM410x
                0x0000000000112224                CopyIndala64toT55x7
                0x0000000000112254                CopyIndala224toT55x7
 .text          0x00000000001122b0     0x20a4 obj/hitag2.o
                0x000000000011262c                nbytes
                0x000000000011263c                hitag2_reset
                0x0000000000112650                hitag2_init
                0x0000000000112664                hitag2_handle_reader_command
                0x0000000000112ef8                hitag2_password
                0x0000000000112ff8                hitag2_crypto
                0x000000000011367c                hitag2_authenticate
                0x00000000001136f4                hitag2_test_auth_attempts
                0x0000000000113800                SnoopHitag
                0x0000000000113b4c                SimulateHitagTag
                0x0000000000113e48                ReaderHitag
 .text          0x0000000000114354     0x16c4 obj/appmain.o
                0x0000000000114354                ToSendReset
                0x000000000011436c                DbpString
                0x00000000001143b4                ToSendStuffBit
                0x000000000011441c                Dbprintf
                0x0000000000114440                BufferClear
                0x0000000000114468                Dbhexdump
                0x0000000000114504                AvgAdc
                0x000000000011454c                MeasureAntennaTuning
                0x0000000000114674                MeasureAntennaTuningHf
                0x00000000001146cc                SimulateTagHfListen
                0x0000000000114760                ReadMem
                0x0000000000114794                SendVersion
                0x0000000000114810                SamyRun
                0x00000000001149dc                ListenReaderField
                0x0000000000114ca8                UsbPacketReceived
                0x0000000000115960                AppMain
 .text          0x0000000000115a18      0x8d8 obj/printf.o
                0x0000000000115a18                kvsprintf
                0x00000000001162b8                vsprintf
                0x00000000001162d0                sprintf
 .text          0x00000000001162f0      0x4a4 obj/util.o
                0x00000000001162f0                SwapBits
                0x0000000000116318                num_to_bytes
                0x0000000000116334                bytes_to_num
                0x0000000000116368                LEDsoff
                0x0000000000116384                LED
                0x0000000000116458                BUTTON_CLICKED
                0x0000000000116520                BUTTON_HELD
                0x00000000001165b8                SpinDelayUs
                0x0000000000116614                SpinDelay
                0x0000000000116678                FormatVersionInformation
                0x000000000011673c                StartTickCount
                0x000000000011674c                StartCountUS
 .text          0x0000000000116794      0x188 obj/string.o
                0x0000000000116794                memcpy
                0x00000000001167b0                memset
                0x00000000001167cc                memcmp
                0x00000000001167fc                strlen
                0x0000000000116818                strncat
                0x000000000011685c                strcat
                0x0000000000116894                strreverse
                0x00000000001168c8                itoa
 .text          0x000000000011691c      0x454 obj/usb.o
                0x00000000001169d8                UsbSendPacket
                0x0000000000116a5c                UsbStart
                0x0000000000116ab4                UsbConnected
                0x0000000000116ac4                UsbPoll
 .text          0x0000000000116d70      0x6cc obj/fpgaloader.o
                0x0000000000116ff4                SetupSpi
                0x0000000000117070                FpgaSetupSsc
                0x00000000001170c8                FpgaSetupSscDma
                0x0000000000117104                bitparse_find_section
                0x00000000001171d8                FpgaDownloadAndGo
                0x00000000001172a0                FpgaGatherVersion
                0x00000000001173bc                FpgaSendCommand
                0x00000000001173f8                FpgaWriteConfWord
                0x0000000000117404                SetAdcMuxFor
 .text          0x000000000011743c     0x119c obj/legicrf.o
                0x0000000000117dec                legic_read_byte
                0x0000000000117ea8                legic_write_byte
                0x0000000000118014                LegicRfReader
                0x0000000000118198                LegicRfWriter
                0x0000000000118320                LegicRfSimulate
 .text          0x00000000001185d8       0xd4 obj/iso14443crc.o
                0x00000000001185d8                ComputeCrc14443
                0x0000000000118644                CheckCrc14443
 .text          0x00000000001186ac       0x40 obj/crc16.o
                0x00000000001186ac                update_crc16
 .text          0x00000000001186ec      0x690 obj/epa.o
                0x00000000001186ec                EPA_Finish
                0x0000000000118704                EPA_Parse_CardAccess
                0x00000000001188c8                EPA_Read_CardAccess
                0x000000000011897c                EPA_PACE_Get_Nonce
                0x0000000000118a30                EPA_PACE_MSE_Set_AT
                0x0000000000118af4                EPA_Setup
                0x0000000000118b64                EPA_PACE_Collect_Nonce
 .text          0x0000000000118d7c     0x2b04 obj/iso14443a.o
                0x0000000000119188                iso14a_set_trigger
                0x0000000000119198                iso14a_clear_trace
                0x00000000001191d0                iso14a_set_tracing
                0x00000000001191e0                iso14a_set_timeout
                0x00000000001191f0                oddparity
                0x0000000000119200                GetParity
                0x0000000000119240                AppendCrc14443a
                0x0000000000119278                SimulateIso14443aTag
                0x0000000000119aa8                ShortFrameFromReader
                0x0000000000119b5c                CodeIso14443aAsReaderPar
                0x0000000000119ca8                EmSend4bitEx
                0x0000000000119de8                EmSend4bit
                0x0000000000119df0                EmSendCmdExPar
                0x0000000000119e8c                EmSendCmdEx
                0x0000000000119ec8                EmSendCmd
                0x0000000000119f08                EmSendCmdPar
                0x0000000000119f14                ReaderTransmitShort
                0x0000000000119fa0                ReaderTransmitPar
                0x000000000011a044                ReaderTransmit
                0x000000000011a080                ReaderReceive
                0x000000000011a11c                ReaderReceivePar
                0x000000000011a1b8                iso14443a_select_card
                0x000000000011a3cc                iso14443a_setup
                0x000000000011a424                iso14_apdu
                0x000000000011a4e0                ReaderIso14443a
                0x000000000011a680                ReaderMifare
                0x000000000011aa94                Mifare1ksim
 .text          0x000000000011b880      0xf00 obj/mifareutil.o
                0x000000000011b880                mifare_get_bigbufptr
                0x000000000011b88c                eml_get_bigbufptr_sendbuf
                0x000000000011b898                eml_get_bigbufptr_recbuf
                0x000000000011b8a4                eml_get_bigbufptr_cardmem
                0x000000000011b8b0                mf_crypto1_decrypt
                0x000000000011b940                mf_crypto1_encrypt
                0x000000000011ba6c                mf_crypto1_encrypt4bit
                0x000000000011babc                mifare_sendcmd_shortex
                0x000000000011bcb8                mifare_sendcmd_short
                0x000000000011bce0                mifare_classic_authex
                0x000000000011c0f0                mifare_classic_auth
                0x000000000011c12c                mifare_classic_readblock
                0x000000000011c248                mifare_classic_writeblock
                0x000000000011c468                mifare_classic_halt
                0x000000000011c4d0                emlSetMem
                0x000000000011c4f8                emlGetMem
                0x000000000011c518                emlGetMemBt
                0x000000000011c534                emlCheckValBl
                0x000000000011c614                emlGetValBl
                0x000000000011c668                emlSetValBl
                0x000000000011c6ac                emlGetKey
                0x000000000011c6f4                emlClearMem
 .text          0x000000000011c780     0x1e20 obj/mifarecmd.o
                0x000000000011c780                MifareReadBlock
                0x000000000011c9a8                MifareReadSector
                0x000000000011ccf0                MifareWriteBlock
                0x000000000011cf10                valid_nonce
                0x000000000011cfd8                MifareNested
                0x000000000011d88c                MifareChkKeys
                0x000000000011daa0                MifareSetDbgLvl
                0x000000000011dacc                MifareEMemClr
                0x000000000011dadc                MifareEMemSet
                0x000000000011dafc                MifareEMemGet
                0x000000000011db64                MifareECardLoad
                0x000000000011dee0                MifareCSetBlock
                0x000000000011e2d4                MifareCGetBlock
 .text          0x000000000011e5a0      0x1a4 obj/mifaresniff.o
                0x000000000011e5a0                MfSniffInit
                0x000000000011e5d0                MfSniffEnd
                0x000000000011e620                intMfSniffSend
 .text          0x000000000011e744      0xe54 obj/iso14443.o
                0x000000000011ec04                SimulateIso14443Tag
                0x000000000011f044                CodeIso14443bAsReader
                0x000000000011f128                AcquireRawAdcSamplesIso14443
                0x000000000011f1a8                ReadSTMemoryIso14443
                0x000000000011f588                ReadSRIX4KIso14443
                0x000000000011f590                ReadSRI512Iso14443
 .text          0x000000000011f598      0x328 obj/crypto1.o
                0x000000000011f598                crypto1_create
                0x000000000011f640                crypto1_destroy
                0x000000000011f650                crypto1_get_lfsr
                0x000000000011f6ac                crypto1_bit
                0x000000000011f7c4                crypto1_byte
                0x000000000011f810                crypto1_word
                0x000000000011f85c                prng_successor
 .text          0x000000000011f8c0       0xe8 obj/legic_prng.o
                0x000000000011f8c0                legic_prng_init
                0x000000000011f8e8                legic_prng_forward
                0x000000000011f95c                legic_prng_count
                0x000000000011f96c                legic_prng_get_bit
 .text          0x000000000011f9a8      0xc60 obj/iclass.o
                0x000000000011fa94                rotateCSN
                0x000000000011fac4                SimulateIClass
                0x00000000001200b4                CodeIClassCommand
                0x00000000001201c8                ReaderTransmitIClass
                0x0000000000120328                ReaderReceiveIClass
                0x000000000012043c                ReaderIClass
 .text          0x0000000000120608       0x9c obj/crc.o
                0x0000000000120608                crc_init
                0x0000000000120634                crc_update
                0x0000000000120678                crc_clear
                0x000000000012068c                crc_finish
 .text          0x00000000001206a4      0xd2c obj/desfire.o
                0x00000000001206a4                print_result
                0x0000000000120730                _desfire_command
                0x0000000000120870                desfire_command
                0x0000000000120928                memxor
                0x0000000000120954                desfire_encrypt_cbc
                0x0000000000120a24                desfire_encrypt_packet
                0x0000000000120a70                setup_3des_ks
                0x0000000000120aac                request_authentication
                0x0000000000120af0                desfire_auth
                0x0000000000120c34                desfire_key_settings
                0x0000000000120ca8                desfire_create_app
                0x0000000000120cf4                desfire_delete_app
                0x0000000000120d34                desfire_select_app
                0x0000000000120d74                desfire_create_file
                0x0000000000120dc8                desfire_change_file_settings
                0x0000000000120e14                desfire_read_data
                0x0000000000120e64                desfire_write_data
                0x0000000000120f10                desfire_change_key
                0x000000000012103c                ReaderMifareDES
 .text          0x00000000001213d0     0x206c obj/des3part.o
                0x00000000001213d0                des3
 .text          0x000000000012343c      0x224 obj/deskey.o
                0x000000000012343c                deskey
                0x00000000001235f4                des3key
 .text          0x0000000000123660      0x114 /usr/lib/gcc/arm-none-eabi/4.7.2/libgcc.a(_udivsi3.o)
                0x0000000000123660                __udivsi3
                0x0000000000123660                __aeabi_uidiv
                0x0000000000123754                __aeabi_uidivmod
 .text          0x0000000000123774      0x148 /usr/lib/gcc/arm-none-eabi/4.7.2/libgcc.a(_divsi3.o)
                0x0000000000123774                __aeabi_idiv
                0x0000000000123774                __divsi3
                0x000000000012389c                __aeabi_idivmod
 .text          0x00000000001238bc        0x4 /usr/lib/gcc/arm-none-eabi/4.7.2/libgcc.a(_dvmd_tls.o)
                0x00000000001238bc                __aeabi_ldiv0
                0x00000000001238bc                __aeabi_idiv0
 .text.__stub   0x00000000001238c0      0x20c linker stubs
 *(.text.*)
 *(.eh_frame)
 *(.glue_7)
 .glue_7        0x0000000000000000        0x0 linker stubs
 *(.glue_7t)
 .glue_7t       0x0000000000000000        0x0 linker stubs

.vfp11_veneer   0x0000000000123b10        0x0
 .vfp11_veneer  0x0000000000000000        0x0 linker stubs

.v4_bx          0x0000000000123b10        0x0
 .v4_bx         0x0000000000000000        0x0 linker stubs

.iplt           0x0000000000123b10        0x0
 .iplt          0x0000000000000000        0x0 obj/start.o

.rodata         0x0000000000123b10     0x2310
 *(.rodata)
 .rodata        0x0000000000123b10      0x2d4 obj/iso15693.o
 .rodata        0x0000000000123de4       0x14 obj/lfops.o
 .rodata        0x0000000000123df8        0x8 obj/appmain.o
 .rodata        0x0000000000123e00      0x188 obj/printf.o
                0x0000000000123f60                hex2ascii_data
 .rodata        0x0000000000123f88      0x11c obj/usb.o
 .rodata        0x00000000001240a4       0x10 obj/fpgaloader.o
 .rodata        0x00000000001240b4       0x2c obj/epa.o
 .rodata        0x00000000001240e0      0x120 obj/iso14443a.o
                0x00000000001240e0                OddByteParity
 .rodata        0x0000000000124200       0x20 obj/mifareutil.o
 .rodata        0x0000000000124220       0x24 obj/iso14443.o
 .rodata        0x0000000000124244        0xc obj/iclass.o
 .rodata        0x0000000000124250       0x18 obj/desfire.o
 .rodata        0x0000000000124268       0x98 obj/deskey.o
 *(.rodata.*)
 .rodata.str1.4
                0x0000000000124300      0x2a9 obj/iso15693.o
                                        0x2b4 (size before relaxing)
 *fill*         0x00000000001245a9        0x3 
 .rodata.str1.4
                0x00000000001245ac       0x29 obj/iso15693tools.o
                                         0x2c (size before relaxing)
 *fill*         0x00000000001245d5        0x3 
 .rodata.str1.4
                0x00000000001245d8      0x1e3 obj/lfops.o
                                        0x1e4 (size before relaxing)
 *fill*         0x00000000001247bb        0x1 
 .rodata.str1.4
                0x00000000001247bc      0x2b9 obj/hitag2.o
                                        0x2bc (size before relaxing)
 *fill*         0x0000000000124a75        0x3 
 .rodata.str1.4
                0x0000000000124a78      0x2b1 obj/appmain.o
                                        0x2cc (size before relaxing)
 *fill*         0x0000000000124d29        0x3 
 .rodata.str1.4
                0x0000000000124d2c       0x13 obj/printf.o
                                         0x14 (size before relaxing)
 *fill*         0x0000000000124d3f        0x1 
 .rodata.str1.4
                0x0000000000124d40       0x81 obj/util.o
                                         0x88 (size before relaxing)
 *fill*         0x0000000000124dc1        0x3 
 .rodata.str1.4
                0x0000000000124dc4       0x59 obj/fpgaloader.o
                                         0x5c (size before relaxing)
 *fill*         0x0000000000124e1d        0x3 
 .rodata.str1.4
                0x0000000000124e20      0x325 obj/legicrf.o
                                        0x330 (size before relaxing)
 *fill*         0x0000000000125145        0x3 
 .rodata.str1.4
                0x0000000000125148      0x2ed obj/iso14443a.o
                                        0x308 (size before relaxing)
 *fill*         0x0000000000125435        0x3 
 .rodata.str1.4
                0x0000000000125438      0x105 obj/mifareutil.o
                                        0x108 (size before relaxing)
 *fill*         0x000000000012553d        0x3 
 .rodata.str1.4
                0x0000000000125540      0x2a6 obj/mifarecmd.o
                                        0x2b4 (size before relaxing)
 *fill*         0x00000000001257e6        0x2 
 .rodata.str1.4
                0x00000000001257e8        0x8 obj/mifaresniff.o
 .rodata.str1.4
                0x00000000001257f0      0x393 obj/iso14443.o
                                        0x3ac (size before relaxing)
 *fill*         0x0000000000125b83        0x1 
 .rodata.str1.4
                0x0000000000125b84       0xdb obj/iclass.o
                                        0x158 (size before relaxing)
 *fill*         0x0000000000125c5f        0x1 
 .rodata.str1.4
                0x0000000000125c60      0x190 obj/desfire.o
 *(.version_information)
 .version_information
                0x0000000000125df0       0x30 obj/version.o
                0x0000000000125df0                version_information

.rel.dyn        0x0000000000125e20        0x0
 .rel.iplt      0x0000000000000000        0x0 obj/start.o
                0x0000000000125e20                . = ALIGN (0x4)

.data           0x0000000000200000     0x34e8 load address 0x0000000000125e20
 *(.data)
 .data          0x0000000000200000       0x50 obj/hitag2.o
                0x0000000000200048                auth_table_len
                0x000000000020004c                auth_table
 .data          0x0000000000200050       0x28 obj/iso14443a.o
                0x0000000000200050                trace
                0x0000000000200054                tracing
 .data          0x0000000000200078        0x4 obj/mifareutil.o
                0x0000000000200078                MF_DBGLEVEL
 .data          0x000000000020007c        0x4 obj/desfire.o
                0x000000000020007c                desfire
 .data          0x0000000000200080      0x800 obj/dessp.o
                0x0000000000200080                Spbox
 *(.data.*)
 *(.ramfunc)
 .ramfunc       0x0000000000200880       0x68 obj/util.o
                0x0000000000200880                GetTickCount
                0x000000000020088c                GetCountUS
                0x00000000002008b4                GetDeltaCountUS
 .ramfunc       0x00000000002008e8      0xf00 obj/iso14443a.o
                0x000000000020103c                LogTrace
                0x0000000000201160                SnoopIso14443a
                0x00000000002014b8                SniffMifare
 .ramfunc       0x00000000002017e8      0x488 obj/mifaresniff.o
                0x00000000002017e8                MfSniffLogic
                0x0000000000201c1c                MfSniffSend
 .ramfunc       0x0000000000201c70      0x954 obj/iso14443.o
                0x0000000000202000                SnoopIso14443
 .ramfunc       0x00000000002025c4      0xec8 obj/iclass.o
                0x0000000000202f3c                SnoopIClass
 *fill*         0x000000000020348c        0x4 
 .ramfunc.__stub
                0x0000000000203490       0x44 linker stubs
                0x00000000002034d4                . = ALIGN (0x4)
                0x0000000000125e20                __data_src_start__ = LOADADDR (.data)
                0x0000000000200000                __data_start__ = ADDR (.data)
                0x00000000002034e8                __data_end__ = (__data_start__ + SIZEOF (.data))

.igot.plt       0x00000000002034e8        0x0 load address 0x0000000000129308
 .igot.plt      0x0000000000000000        0x0 obj/start.o

.bss            0x00000000002034e8     0xa0a0
                0x00000000002034e8                __bss_start__ = .
 *(.bss)
 .bss           0x00000000002034e8        0x4 obj/iso15693.o
                0x00000000002034e8                DEBUG
 .bss           0x00000000002034ec       0x14 obj/iso15693tools.o
 .bss           0x0000000000203500        0x8 obj/hitag2.o
                0x0000000000203500                auth_table_pos
 .bss           0x0000000000203508        0x4 obj/appmain.o
 .bss           0x000000000020350c        0x4 obj/util.o
 .bss           0x0000000000203510       0x48 obj/usb.o
 .bss           0x0000000000203558        0xc obj/fpgaloader.o
 .bss           0x0000000000203564       0x3c obj/legicrf.o
 .bss           0x00000000002035a0       0x78 obj/iso14443a.o
                0x0000000000203600                trigger
                0x0000000000203608                traceLen
                0x000000000020360c                rsamples
 .bss           0x0000000000203618       0x24 obj/mifaresniff.o
 .bss           0x000000000020363c       0x44 obj/iso14443.o
 .bss           0x0000000000203680       0x78 obj/iclass.o
 .bss           0x00000000002036f8        0x4 obj/des3part.o
                0x00000000002036f8                Asmversion
 *(.bss.*)
                0x00000000002036fc                . = ALIGN (0x4)
                0x00000000002036fc                __bss_end__ = .
 COMMON         0x00000000002036fc     0x9c40 obj/start.o
                0x00000000002036fc                BigBuf
 *fill*         0x000000000020d33c        0x4 
 COMMON         0x000000000020d340       0x2d obj/hitag2.o
                0x000000000020d340                password
                0x000000000020d344                NrAr
                0x000000000020d350                cipher_state
                0x000000000020d358                bPwd
                0x000000000020d35c                blocknr
                0x000000000020d360                bCrypto
                0x000000000020d364                key
                0x000000000020d36c                bAuthenticating
 *fill*         0x000000000020d36d        0x3 
 COMMON         0x000000000020d370      0x204 obj/appmain.o
                0x000000000020d370                ToSend
                0x000000000020d570                ToSendMax
 COMMON         0x000000000020d574        0xc obj/legicrf.o
                0x000000000020d574                timer
                0x000000000020d578                timestamp
                0x000000000020d57c                prng_timer
 COMMON         0x000000000020d580        0x8 obj/legic_prng.o
                0x000000000020d580                lfsr

.commonarea     0x000000000020ffe0       0x10
 *(.commonarea)
 .commonarea    0x000000000020ffe0       0x10 obj/appmain.o
                0x000000000020ffe0                common_area
LOAD obj/version.o
LOAD obj/fpga.o
LOAD obj/start.o
LOAD obj/iso15693.o
LOAD obj/iso15693tools.o
LOAD obj/lfops.o
LOAD obj/hitag2.o
LOAD obj/appmain.o
LOAD obj/printf.o
LOAD obj/util.o
LOAD obj/string.o
LOAD obj/usb.o
LOAD obj/fpgaloader.o
LOAD obj/legicrf.o
LOAD obj/iso14443crc.o
LOAD obj/crc16.o
LOAD obj/epa.o
LOAD obj/iso14443a.o
LOAD obj/mifareutil.o
LOAD obj/mifarecmd.o
LOAD obj/mifaresniff.o
LOAD obj/iso14443.o
LOAD obj/crapto1.o
LOAD obj/crypto1.o
LOAD obj/legic_prng.o
LOAD obj/iclass.o
LOAD obj/crc.o
LOAD obj/desfire.o
LOAD obj/des3part.o
LOAD obj/deskey.o
LOAD obj/dessp.o
LOAD /usr/lib/gcc/arm-none-eabi/4.7.2/libgcc.a
OUTPUT(obj/fullimage.elf elf32-littlearm)

.comment        0x0000000000000000       0x11
 .comment       0x0000000000000000       0x11 obj/version.o
                                         0x12 (size before relaxing)
 .comment       0x0000000000000000       0x12 obj/start.o
 .comment       0x0000000000000000       0x12 obj/iso15693.o
 .comment       0x0000000000000000       0x12 obj/iso15693tools.o
 .comment       0x0000000000000000       0x12 obj/lfops.o
 .comment       0x0000000000000000       0x12 obj/hitag2.o
 .comment       0x0000000000000000       0x12 obj/appmain.o
 .comment       0x0000000000000000       0x12 obj/printf.o
 .comment       0x0000000000000000       0x12 obj/util.o
 .comment       0x0000000000000000       0x12 obj/string.o
 .comment       0x0000000000000000       0x12 obj/usb.o
 .comment       0x0000000000000000       0x12 obj/fpgaloader.o
 .comment       0x0000000000000000       0x12 obj/legicrf.o
 .comment       0x0000000000000000       0x12 obj/iso14443crc.o
 .comment       0x0000000000000000       0x12 obj/crc16.o
 .comment       0x0000000000000000       0x12 obj/epa.o
 .comment       0x0000000000000000       0x12 obj/iso14443a.o
 .comment       0x0000000000000000       0x12 obj/mifareutil.o
 .comment       0x0000000000000000       0x12 obj/mifarecmd.o
 .comment       0x0000000000000000       0x12 obj/mifaresniff.o
 .comment       0x0000000000000000       0x12 obj/iso14443.o
 .comment       0x0000000000000000       0x12 obj/crypto1.o
 .comment       0x0000000000000000       0x12 obj/legic_prng.o
 .comment       0x0000000000000000       0x12 obj/iclass.o
 .comment       0x0000000000000000       0x12 obj/crc.o
 .comment       0x0000000000000000       0x12 obj/desfire.o
 .comment       0x0000000000000000       0x12 obj/des3part.o
 .comment       0x0000000000000000       0x12 obj/deskey.o
 .comment       0x0000000000000000       0x12 obj/dessp.o

.ARM.attributes
                0x0000000000000000       0x2e
 .ARM.attributes
                0x0000000000000000       0x30 obj/version.o
 .ARM.attributes
                0x0000000000000030       0x30 obj/start.o
 .ARM.attributes
                0x0000000000000060       0x30 obj/iso15693.o
 .ARM.attributes
                0x0000000000000090       0x30 obj/iso15693tools.o
 .ARM.attributes
                0x00000000000000c0       0x30 obj/lfops.o
 .ARM.attributes
                0x00000000000000f0       0x30 obj/hitag2.o
 .ARM.attributes
                0x0000000000000120       0x30 obj/appmain.o
 .ARM.attributes
                0x0000000000000150       0x30 obj/printf.o
 .ARM.attributes
                0x0000000000000180       0x30 obj/util.o
 .ARM.attributes
                0x00000000000001b0       0x30 obj/string.o
 .ARM.attributes
                0x00000000000001e0       0x30 obj/usb.o
 .ARM.attributes
                0x0000000000000210       0x30 obj/fpgaloader.o
 .ARM.attributes
                0x0000000000000240       0x30 obj/legicrf.o
 .ARM.attributes
                0x0000000000000270       0x30 obj/iso14443crc.o
 .ARM.attributes
                0x00000000000002a0       0x30 obj/crc16.o
 .ARM.attributes
                0x00000000000002d0       0x30 obj/epa.o
 .ARM.attributes
                0x0000000000000300       0x30 obj/iso14443a.o
 .ARM.attributes
                0x0000000000000330       0x30 obj/mifareutil.o
 .ARM.attributes
                0x0000000000000360       0x30 obj/mifarecmd.o
 .ARM.attributes
                0x0000000000000390       0x30 obj/mifaresniff.o
 .ARM.attributes
                0x00000000000003c0       0x30 obj/iso14443.o
 .ARM.attributes
                0x00000000000003f0       0x30 obj/crypto1.o
 .ARM.attributes
                0x0000000000000420       0x30 obj/legic_prng.o
 .ARM.attributes
                0x0000000000000450       0x30 obj/iclass.o
 .ARM.attributes
                0x0000000000000480       0x30 obj/crc.o
 .ARM.attributes
                0x00000000000004b0       0x30 obj/desfire.o
 .ARM.attributes
                0x00000000000004e0       0x30 obj/des3part.o
 .ARM.attributes
                0x0000000000000510       0x30 obj/deskey.o
 .ARM.attributes
                0x0000000000000540       0x30 obj/dessp.o
 .ARM.attributes
                0x0000000000000570       0x18 /usr/lib/gcc/arm-none-eabi/4.7.2/libgcc.a(_udivsi3.o)
 .ARM.attributes
                0x0000000000000588       0x18 /usr/lib/gcc/arm-none-eabi/4.7.2/libgcc.a(_divsi3.o)
 .ARM.attributes
                0x00000000000005a0       0x18 /usr/lib/gcc/arm-none-eabi/4.7.2/libgcc.a(_dvmd_tls.o)

.debug_frame    0x0000000000000000       0x40
 .debug_frame   0x0000000000000000       0x20 /usr/lib/gcc/arm-none-eabi/4.7.2/libgcc.a(_udivsi3.o)
 .debug_frame   0x0000000000000020       0x20 /usr/lib/gcc/arm-none-eabi/4.7.2/libgcc.a(_divsi3.o)

.debug_line     0x0000000000000000      0x163
 .debug_line    0x0000000000000000       0x80 /usr/lib/gcc/arm-none-eabi/4.7.2/libgcc.a(_udivsi3.o)
 .debug_line    0x0000000000000080       0x8c /usr/lib/gcc/arm-none-eabi/4.7.2/libgcc.a(_divsi3.o)
 .debug_line    0x000000000000010c       0x57 /usr/lib/gcc/arm-none-eabi/4.7.2/libgcc.a(_dvmd_tls.o)

.debug_info     0x0000000000000000      0x1f8
 .debug_info    0x0000000000000000       0xa8 /usr/lib/gcc/arm-none-eabi/4.7.2/libgcc.a(_udivsi3.o)
 .debug_info    0x00000000000000a8       0xa8 /usr/lib/gcc/arm-none-eabi/4.7.2/libgcc.a(_divsi3.o)
 .debug_info    0x0000000000000150       0xa8 /usr/lib/gcc/arm-none-eabi/4.7.2/libgcc.a(_dvmd_tls.o)

.debug_abbrev   0x0000000000000000       0x3c
 .debug_abbrev  0x0000000000000000       0x14 /usr/lib/gcc/arm-none-eabi/4.7.2/libgcc.a(_udivsi3.o)
 .debug_abbrev  0x0000000000000014       0x14 /usr/lib/gcc/arm-none-eabi/4.7.2/libgcc.a(_divsi3.o)
 .debug_abbrev  0x0000000000000028       0x14 /usr/lib/gcc/arm-none-eabi/4.7.2/libgcc.a(_dvmd_tls.o)

.debug_aranges  0x0000000000000000       0x60
 .debug_aranges
                0x0000000000000000       0x20 /usr/lib/gcc/arm-none-eabi/4.7.2/libgcc.a(_udivsi3.o)
 .debug_aranges
                0x0000000000000020       0x20 /usr/lib/gcc/arm-none-eabi/4.7.2/libgcc.a(_divsi3.o)
 .debug_aranges
                0x0000000000000040       0x20 /usr/lib/gcc/arm-none-eabi/4.7.2/libgcc.a(_dvmd_tls.o)
